target datalayout = "e-m:e-p270:32:32-p271:32:32-p272:64:64-i64:64-i128:128-f80:128-n8:16:32:64-S128"
target triple = "x86_64-pc-linux-gnu"

%struct.buf_t = type { i32, ptr, i32, i32, i8, i8 }
%struct.slurm_node_alias_addrs_t = type { i64, ptr, ptr, i32, ptr }

@.str.4 = private unnamed_addr constant [18 x i8] c"%s: failed decode\00", align 1
@__func__.cred_p_extract_net_cred = private unnamed_addr constant [24 x i8] c"cred_p_extract_net_cred\00", align 1
@.str.5 = private unnamed_addr constant [18 x i8] c"%s: failed unpack\00", align 1

; Function Attrs: nounwind uwtable
define dso_local ptr @cred_p_extract_net_cred(ptr noundef %0, i16 noundef zeroext %1) #0 {
  %3 = alloca ptr, align 8
  %4 = alloca ptr, align 8
  %5 = alloca i16, align 2
  %6 = alloca i32, align 4
  %7 = alloca i64, align 8
  %8 = alloca ptr, align 8
  %9 = alloca ptr, align 8
  %10 = alloca i32, align 4
  store ptr %0, ptr %4, align 8
  store i16 %1, ptr %5, align 2
  call void @llvm.lifetime.start.p0(i64 4, ptr %6) #5
  call void @llvm.lifetime.start.p0(i64 8, ptr %7) #5
  call void @llvm.lifetime.start.p0(i64 8, ptr %8) #5
  store ptr null, ptr %8, align 8
  call void @llvm.lifetime.start.p0(i64 8, ptr %9) #5
  store ptr null, ptr %9, align 8
  %11 = load ptr, ptr %4, align 8
  %12 = call i32 @_decode(ptr noundef %11, i1 noundef zeroext true, ptr noundef %9, ptr noundef %7)
  store i32 %12, ptr %6, align 4
  %13 = icmp ne i32 %12, 0
  br i1 %13, label %14, label %16

14:                                               ; preds = %2
  %15 = call i32 (ptr, ...) @slurm_error(ptr noundef @.str.4, ptr noundef @__func__.cred_p_extract_net_cred)
  store ptr null, ptr %3, align 8
  store i32 1, ptr %10, align 4
  br label %42

16:                                               ; preds = %2
  %17 = load ptr, ptr %9, align 8
  %18 = load i16, ptr %5, align 2
  %19 = call i32 @slurm_unpack_node_alias_addrs(ptr noundef %8, ptr noundef %17, i16 noundef zeroext %18)
  %20 = icmp ne i32 %19, 0
  br i1 %20, label %21, label %30

21:                                               ; preds = %16
  %22 = call i32 (ptr, ...) @slurm_error(ptr noundef @.str.5, ptr noundef @__func__.cred_p_extract_net_cred)
  %23 = load ptr, ptr %9, align 8
  %24 = icmp ne ptr %23, null
  br i1 %24, label %25, label %29

25:                                               ; preds = %21
  %26 = load ptr, ptr %9, align 8
  %27 = getelementptr inbounds nuw %struct.buf_t, ptr %26, i32 0, i32 1
  %28 = load ptr, ptr %27, align 8
  call void @free(ptr noundef %28) #5
  call void @slurm_xfree(ptr noundef %9)
  br label %29

29:                                               ; preds = %25, %21
  store ptr null, ptr %3, align 8
  store i32 1, ptr %10, align 4
  br label %42

30:                                               ; preds = %16
  %31 = load i64, ptr %7, align 8
  %32 = load ptr, ptr %8, align 8
  %33 = getelementptr inbounds nuw %struct.slurm_node_alias_addrs_t, ptr %32, i32 0, i32 0
  store i64 %31, ptr %33, align 8
  %34 = load ptr, ptr %9, align 8
  %35 = icmp ne ptr %34, null
  br i1 %35, label %36, label %40

36:                                               ; preds = %30
  %37 = load ptr, ptr %9, align 8
  %38 = getelementptr inbounds nuw %struct.buf_t, ptr %37, i32 0, i32 1
  %39 = load ptr, ptr %38, align 8
  call void @free(ptr noundef %39) #5
  call void @slurm_xfree(ptr noundef %9)
  br label %40

40:                                               ; preds = %36, %30
  %41 = load ptr, ptr %8, align 8
  store ptr %41, ptr %3, align 8
  store i32 1, ptr %10, align 4
  br label %42

42:                                               ; preds = %40, %29, %14
  call void @llvm.lifetime.end.p0(i64 8, ptr %9) #5
  call void @llvm.lifetime.end.p0(i64 8, ptr %8) #5
  call void @llvm.lifetime.end.p0(i64 8, ptr %7) #5
  call void @llvm.lifetime.end.p0(i64 4, ptr %6) #5
  %43 = load ptr, ptr %3, align 8
  ret ptr %43
}