; Function Attrs: nounwind uwtable
define dso_local ptr @cred_p_extract_net_cred(ptr noundef %0, i16 noundef zeroext %1) local_unnamed_addr #0 {
  %3 = alloca i64, align 8
  %4 = alloca ptr, align 8
  %5 = alloca ptr, align 8
  call void @llvm.lifetime.start.p0(i64 8, ptr nonnull %3) #7
  call void @llvm.lifetime.start.p0(i64 8, ptr nonnull %4) #7
  store ptr null, ptr %4, align 8
  call void @llvm.lifetime.start.p0(i64 8, ptr nonnull %5) #7
  store ptr null, ptr %5, align 8
  %6 = call fastcc i32 @_decode(ptr noundef %0, i1 noundef zeroext true, ptr noundef %5, ptr noundef nonnull %3)
  %.not = icmp eq i32 %6, 0
  br i1 %.not, label %9, label %7

7:                                                ; preds = %2
  %8 = call i32 (ptr, ...) @slurm_error(ptr noundef nonnull @.str.4, ptr noundef nonnull @__func__.cred_p_extract_net_cred) #7
  br label %27

9:                                                ; preds = %2
  %10 = load ptr, ptr %5, align 8
  %11 = call i32 @slurm_unpack_node_alias_addrs(ptr noundef nonnull %4, ptr noundef %10, i16 noundef zeroext %1) #7
  %.not4 = icmp eq i32 %11, 0
  br i1 %.not4, label %18, label %12

12:                                               ; preds = %9
  %13 = call i32 (ptr, ...) @slurm_error(ptr noundef nonnull @.str.5, ptr noundef nonnull @__func__.cred_p_extract_net_cred) #7
  %14 = load ptr, ptr %5, align 8
  %.not6 = icmp eq ptr %14, null
  br i1 %.not6, label %27, label %15

15:                                               ; preds = %12
  %16 = getelementptr inbounds nuw i8, ptr %14, i64 8
  %17 = load ptr, ptr %16, align 8
  call void @free(ptr noundef %17) #7
  call void @slurm_xfree(ptr noundef nonnull %5) #7
  br label %27

18:                                               ; preds = %9
  %19 = load i64, ptr %3, align 8
  %20 = load ptr, ptr %4, align 8
  store i64 %19, ptr %20, align 8
  %21 = load ptr, ptr %5, align 8
  %.not5 = icmp eq ptr %21, null
  br i1 %.not5, label %25, label %22

22:                                               ; preds = %18
  %23 = getelementptr inbounds nuw i8, ptr %21, i64 8
  %24 = load ptr, ptr %23, align 8
  call void @free(ptr noundef %24) #7
  call void @slurm_xfree(ptr noundef nonnull %5) #7
  br label %25

25:                                               ; preds = %22, %18
  %26 = load ptr, ptr %4, align 8
  br label %27

27:                                               ; preds = %12, %15, %25, %7
  %.0 = phi ptr [ null, %7 ], [ %26, %25 ], [ null, %15 ], [ null, %12 ]
  call void @llvm.lifetime.end.p0(i64 8, ptr nonnull %5) #7
  call void @llvm.lifetime.end.p0(i64 8, ptr nonnull %4) #7
  call void @llvm.lifetime.end.p0(i64 8, ptr nonnull %3) #7
  ret ptr %.0
}